target datalayout = "e-m:e-p270:32:32-p271:32:32-p272:64:64-i64:64-i128:128-f80:128-n8:16:32:64-S128"
target triple = "x86_64-pc-linux-gnu"

%struct._value_string_ext = type { ptr, i32, i32, ptr, ptr }
%struct.expert_field = type { i32, i32 }
%struct._packet_info = type { ptr, ptr, i32, i32, %struct.nstime_t, %struct.nstime_t, %struct.nstime_t, i8, ptr, ptr, ptr, ptr, %struct._address, %struct._address, %struct._address, %struct._address, %struct._address, %struct._address, i32, ptr, i8, [3 x i8], %struct.anon, i32, i32, i32, i32, ptr, i8, ptr, ptr, i16, i16, i32, i32, i16, i32, i32, ptr, ptr, ptr, i8, i8, i16, i16, i16, i32, i16, i16, ptr, ptr, ptr, ptr, ptr, i32, i32 }
%struct.nstime_t = type { i64, i32 }
%struct._address = type { i32, i32, ptr, ptr }
%struct.anon = type { i8, [3 x i8] }

@E212_codes_ext = hidden global %struct._value_string_ext { ptr @_try_val_to_str_ext_init, i32 0, i32 799, ptr @E212_codes, ptr @.str }, align 8
@mcc_mnc_2digits_codes_ext = hidden global %struct._value_string_ext { ptr @_try_val_to_str_ext_init, i32 0, i32 1757, ptr @mcc_mnc_2digits_codes, ptr @.str.1 }, align 8
@mcc_mnc_3digits_codes_ext = hidden global %struct._value_string_ext { ptr @_try_val_to_str_ext_init, i32 0, i32 698, ptr @mcc_mnc_3digits_codes, ptr @.str.2 }, align 8
@hf_E212_mcc_lai = internal global i32 0, align 4
@hf_E212_mnc_lai = internal global i32 0, align 4
@hf_E212_mcc_rai = internal global i32 0, align 4
@hf_E212_mnc_rai = internal global i32 0, align 4
@hf_E212_mcc_sai = internal global i32 0, align 4
@hf_E212_mnc_sai = internal global i32 0, align 4
@hf_E212_mcc_cgi = internal global i32 0, align 4
@hf_E212_mnc_cgi = internal global i32 0, align 4
@hf_E212_mcc_ecgi = internal global i32 0, align 4
@hf_E212_mnc_ecgi = internal global i32 0, align 4
@hf_E212_mcc_tai = internal global i32 0, align 4
@hf_E212_mnc_tai = internal global i32 0, align 4
@hf_E212_mcc_nrcgi = internal global i32 0, align 4
@hf_E212_mnc_nrcgi = internal global i32 0, align 4
@hf_E212_mcc_5gstai = internal global i32 0, align 4
@hf_E212_mnc_5gstai = internal global i32 0, align 4
@hf_E212_mcc_gummei = internal global i32 0, align 4
@hf_E212_mnc_gummei = internal global i32 0, align 4
@hf_E212_mcc_guami = internal global i32 0, align 4
@hf_E212_mnc_guami = internal global i32 0, align 4
@hf_E212_mcc_serv_net = internal global i32 0, align 4
@hf_E212_mnc_serv_net = internal global i32 0, align 4
@hf_E212_mcc = internal global i32 0, align 4
@hf_E212_mnc = internal global i32 0, align 4
@.str.3 = private unnamed_addr constant [5 x i8] c"%03u\00", align 1
@.str.4 = private unnamed_addr constant [8 x i8] c"%s (%s)\00", align 1
@.str.5 = private unnamed_addr constant [8 x i8] c"Unknown\00", align 1
@ei_E212_mcc_non_decimal = internal global %struct.expert_field zeroinitializer, align 4
@.str.6 = private unnamed_addr constant [23 x i8] c"MCC %u %s, MNC %03u %s\00", align 1
@.str.7 = private unnamed_addr constant [1 x i8] zeroinitializer, align 1
@.str.8 = private unnamed_addr constant [5 x i8] c"%02u\00", align 1
@.str.9 = private unnamed_addr constant [23 x i8] c"MCC %u %s, MNC %02u %s\00", align 1
@ei_E212_mnc_non_decimal = internal global %struct.expert_field zeroinitializer, align 4

; Function Attrs: null_pointer_is_valid sspstrong uwtable
define hidden ptr @dissect_e212_mcc_mnc_wmem_packet_str(ptr noundef %0, ptr noundef %1, ptr noundef %2, i32 noundef %3, i32 noundef %4, i1 noundef zeroext %5) #1 {
  %7 = alloca ptr, align 8
  %8 = alloca ptr, align 8
  %9 = alloca ptr, align 8
  %10 = alloca i32, align 4
  %11 = alloca i32, align 4
  %12 = alloca i8, align 1
  %13 = alloca i32, align 4
  %14 = alloca i32, align 4
  %15 = alloca i8, align 1
  %16 = alloca i16, align 2
  %17 = alloca i16, align 2
  %18 = alloca i8, align 1
  %19 = alloca i8, align 1
  %20 = alloca i8, align 1
  %21 = alloca i8, align 1
  %22 = alloca i8, align 1
  %23 = alloca i8, align 1
  %24 = alloca ptr, align 8
  %25 = alloca ptr, align 8
  %26 = alloca ptr, align 8
  %27 = alloca ptr, align 8
  %28 = alloca i8, align 1
  %29 = alloca i32, align 4
  %30 = alloca i32, align 4
  store ptr %0, ptr %7, align 8
  store ptr %1, ptr %8, align 8
  store ptr %2, ptr %9, align 8
  store i32 %3, ptr %10, align 4
  store i32 %4, ptr %11, align 4
  %31 = zext i1 %5 to i8
  store i8 %31, ptr %12, align 1
  call void @llvm.lifetime.start.p0(i64 4, ptr %13) #6
  call void @llvm.lifetime.start.p0(i64 4, ptr %14) #6
  call void @llvm.lifetime.start.p0(i64 1, ptr %15) #6
  call void @llvm.lifetime.start.p0(i64 2, ptr %16) #6
  call void @llvm.lifetime.start.p0(i64 2, ptr %17) #6
  call void @llvm.lifetime.start.p0(i64 1, ptr %18) #6
  call void @llvm.lifetime.start.p0(i64 1, ptr %19) #6
  call void @llvm.lifetime.start.p0(i64 1, ptr %20) #6
  call void @llvm.lifetime.start.p0(i64 1, ptr %21) #6
  call void @llvm.lifetime.start.p0(i64 1, ptr %22) #6
  call void @llvm.lifetime.start.p0(i64 1, ptr %23) #6
  call void @llvm.lifetime.start.p0(i64 8, ptr %24) #6
  call void @llvm.lifetime.start.p0(i64 8, ptr %25) #6
  call void @llvm.lifetime.start.p0(i64 8, ptr %26) #6
  call void @llvm.lifetime.start.p0(i64 8, ptr %27) #6
  call void @llvm.lifetime.start.p0(i64 1, ptr %28) #6
  store i8 0, ptr %28, align 1
  call void @llvm.lifetime.start.p0(i64 4, ptr %29) #6
  call void @llvm.lifetime.start.p0(i64 4, ptr %30) #6
  %32 = load i32, ptr %11, align 4
  switch i32 %32, label %66 [
    i32 1, label %33
    i32 2, label %36
    i32 3, label %39
    i32 4, label %42
    i32 5, label %45
    i32 6, label %48
    i32 7, label %51
    i32 8, label %54
    i32 9, label %57
    i32 10, label %60
    i32 11, label %63
  ]

33:                                               ; preds = %6
  %34 = load i32, ptr @hf_E212_mcc_lai, align 4
  store i32 %34, ptr %29, align 4
  %35 = load i32, ptr @hf_E212_mnc_lai, align 4
  store i32 %35, ptr %30, align 4
  br label %69

36:                                               ; preds = %6
  %37 = load i32, ptr @hf_E212_mcc_rai, align 4
  store i32 %37, ptr %29, align 4
  %38 = load i32, ptr @hf_E212_mnc_rai, align 4
  store i32 %38, ptr %30, align 4
  br label %69

39:                                               ; preds = %6
  %40 = load i32, ptr @hf_E212_mcc_sai, align 4
  store i32 %40, ptr %29, align 4
  %41 = load i32, ptr @hf_E212_mnc_sai, align 4
  store i32 %41, ptr %30, align 4
  br label %69

42:                                               ; preds = %6
  %43 = load i32, ptr @hf_E212_mcc_cgi, align 4
  store i32 %43, ptr %29, align 4
  %44 = load i32, ptr @hf_E212_mnc_cgi, align 4
  store i32 %44, ptr %30, align 4
  br label %69

45:                                               ; preds = %6
  %46 = load i32, ptr @hf_E212_mcc_ecgi, align 4
  store i32 %46, ptr %29, align 4
  %47 = load i32, ptr @hf_E212_mnc_ecgi, align 4
  store i32 %47, ptr %30, align 4
  br label %69

48:                                               ; preds = %6
  %49 = load i32, ptr @hf_E212_mcc_tai, align 4
  store i32 %49, ptr %29, align 4
  %50 = load i32, ptr @hf_E212_mnc_tai, align 4
  store i32 %50, ptr %30, align 4
  br label %69

51:                                               ; preds = %6
  %52 = load i32, ptr @hf_E212_mcc_nrcgi, align 4
  store i32 %52, ptr %29, align 4
  %53 = load i32, ptr @hf_E212_mnc_nrcgi, align 4
  store i32 %53, ptr %30, align 4
  br label %69

54:                                               ; preds = %6
  %55 = load i32, ptr @hf_E212_mcc_5gstai, align 4
  store i32 %55, ptr %29, align 4
  %56 = load i32, ptr @hf_E212_mnc_5gstai, align 4
  store i32 %56, ptr %30, align 4
  br label %69

57:                                               ; preds = %6
  %58 = load i32, ptr @hf_E212_mcc_gummei, align 4
  store i32 %58, ptr %29, align 4
  %59 = load i32, ptr @hf_E212_mnc_gummei, align 4
  store i32 %59, ptr %30, align 4
  br label %69

60:                                               ; preds = %6
  %61 = load i32, ptr @hf_E212_mcc_guami, align 4
  store i32 %61, ptr %29, align 4
  %62 = load i32, ptr @hf_E212_mnc_guami, align 4
  store i32 %62, ptr %30, align 4
  br label %69

63:                                               ; preds = %6
  %64 = load i32, ptr @hf_E212_mcc_serv_net, align 4
  store i32 %64, ptr %29, align 4
  %65 = load i32, ptr @hf_E212_mnc_serv_net, align 4
  store i32 %65, ptr %30, align 4
  br label %69

66:                                               ; preds = %6
  %67 = load i32, ptr @hf_E212_mcc, align 4
  store i32 %67, ptr %29, align 4
  %68 = load i32, ptr @hf_E212_mnc, align 4
  store i32 %68, ptr %30, align 4
  br label %69

69:                                               ; preds = %66, %63, %60, %57, %54, %51, %48, %45, %42, %39, %36, %33
  %70 = load i32, ptr %10, align 4
  store i32 %70, ptr %13, align 4
  %71 = load ptr, ptr %7, align 8
  %72 = load i32, ptr %10, align 4
  %73 = call i32 @tvb_get_ntoh24(ptr noundef %71, i32 noundef %72)
  store i32 %73, ptr %14, align 4
  %74 = load ptr, ptr %7, align 8
  %75 = load i32, ptr %10, align 4
  %76 = call zeroext i8 @tvb_get_uint8(ptr noundef %74, i32 noundef %75)
  store i8 %76, ptr %15, align 1
  %77 = load i8, ptr %15, align 1
  %78 = zext i8 %77 to i32
  %79 = and i32 %78, 15
  %80 = trunc i32 %79 to i8
  store i8 %80, ptr %18, align 1
  %81 = load i8, ptr %15, align 1
  %82 = zext i8 %81 to i32
  %83 = ashr i32 %82, 4
  %84 = trunc i32 %83 to i8
  store i8 %84, ptr %19, align 1
  %85 = load i32, ptr %10, align 4
  %86 = add i32 %85, 1
  store i32 %86, ptr %10, align 4
  %87 = load ptr, ptr %7, align 8
  %88 = load i32, ptr %10, align 4
  %89 = call zeroext i8 @tvb_get_uint8(ptr noundef %87, i32 noundef %88)
  store i8 %89, ptr %15, align 1
  %90 = load i8, ptr %15, align 1
  %91 = zext i8 %90 to i32
  %92 = and i32 %91, 15
  %93 = trunc i32 %92 to i8
  store i8 %93, ptr %20, align 1
  %94 = load i8, ptr %15, align 1
  %95 = zext i8 %94 to i32
  %96 = ashr i32 %95, 4
  %97 = trunc i32 %96 to i8
  store i8 %97, ptr %23, align 1
  %98 = load i32, ptr %10, align 4
  %99 = add i32 %98, 1
  store i32 %99, ptr %10, align 4
  %100 = load ptr, ptr %7, align 8
  %101 = load i32, ptr %10, align 4
  %102 = call zeroext i8 @tvb_get_uint8(ptr noundef %100, i32 noundef %101)
  store i8 %102, ptr %15, align 1
  %103 = load i8, ptr %15, align 1
  %104 = zext i8 %103 to i32
  %105 = and i32 %104, 15
  %106 = trunc i32 %105 to i8
  store i8 %106, ptr %21, align 1
  %107 = load i8, ptr %15, align 1
  %108 = zext i8 %107 to i32
  %109 = ashr i32 %108, 4
  %110 = trunc i32 %109 to i8
  store i8 %110, ptr %22, align 1
  %111 = load i8, ptr %18, align 1
  %112 = zext i8 %111 to i32
  %113 = mul i32 100, %112
  %114 = load i8, ptr %19, align 1
  %115 = zext i8 %114 to i32
  %116 = mul i32 10, %115
  %117 = add i32 %113, %116
  %118 = load i8, ptr %20, align 1
  %119 = zext i8 %118 to i32
  %120 = add i32 %117, %119
  %121 = trunc i32 %120 to i16
  store i16 %121, ptr %16, align 2
  %122 = load i8, ptr %21, align 1
  %123 = zext i8 %122 to i32
  %124 = mul i32 10, %123
  %125 = load i8, ptr %22, align 1
  %126 = zext i8 %125 to i32
  %127 = add i32 %124, %126
  %128 = trunc i32 %127 to i16
  store i16 %128, ptr %17, align 2
  %129 = load i8, ptr %23, align 1
  %130 = zext i8 %129 to i32
  %131 = icmp ne i32 %130, 15
  br i1 %131, label %135, label %132

132:                                              ; preds = %69
  %133 = load i32, ptr %14, align 4
  %134 = icmp eq i32 %133, 16777215
  br i1 %134, label %135, label %155

135:                                              ; preds = %132, %69
  store i8 1, ptr %28, align 1
  %136 = load i8, ptr %12, align 1, !range !6, !noundef !7
  %137 = trunc i8 %136 to i1
  br i1 %137, label %138, label %146

138:                                              ; preds = %135
  %139 = load i16, ptr %17, align 2
  %140 = zext i16 %139 to i32
  %141 = mul i32 10, %140
  %142 = load i8, ptr %23, align 1
  %143 = zext i8 %142 to i32
  %144 = add i32 %141, %143
  %145 = trunc i32 %144 to i16
  store i16 %145, ptr %17, align 2
  br label %154

146:                                              ; preds = %135
  %147 = load i8, ptr %23, align 1
  %148 = zext i8 %147 to i32
  %149 = mul i32 100, %148
  %150 = load i16, ptr %17, align 2
  %151 = zext i16 %150 to i32
  %152 = add i32 %149, %151
  %153 = trunc i32 %152 to i16
  store i16 %153, ptr %17, align 2
  br label %154

154:                                              ; preds = %146, %138
  br label %155

155:                                              ; preds = %154, %132
  %156 = load ptr, ptr %8, align 8
  %157 = getelementptr inbounds nuw %struct._packet_info, ptr %156, i32 0, i32 51
  %158 = load ptr, ptr %157, align 8
  %159 = load i16, ptr %16, align 2
  %160 = zext i16 %159 to i32
  %161 = call noalias ptr (ptr, ptr, ...) @wmem_strdup_printf(ptr noundef %158, ptr noundef @.str.3, i32 noundef %160)
  store ptr %161, ptr %25, align 8
  %162 = load ptr, ptr %9, align 8
  %163 = load i32, ptr %29, align 4
  %164 = load ptr, ptr %7, align 8
  %165 = load i32, ptr %13, align 4
  %166 = load ptr, ptr %25, align 8
  %167 = load i16, ptr %16, align 2
  %168 = zext i16 %167 to i32
  %169 = call ptr @val_to_str_ext_const(i32 noundef %168, ptr noundef @E212_codes_ext, ptr noundef @.str.5)
  %170 = load ptr, ptr %25, align 8
  %171 = call ptr (ptr, i32, ptr, i32, i32, ptr, ptr, ...) @proto_tree_add_string_format_value(ptr noundef %162, i32 noundef %163, ptr noundef %164, i32 noundef %165, i32 noundef 2, ptr noundef %166, ptr noundef @.str.4, ptr noundef %169, ptr noundef %170)
  store ptr %171, ptr %24, align 8
  %172 = load i8, ptr %18, align 1
  %173 = zext i8 %172 to i32
  %174 = icmp sgt i32 %173, 9
  br i1 %174, label %183, label %175

175:                                              ; preds = %155
  %176 = load i8, ptr %19, align 1
  %177 = zext i8 %176 to i32
  %178 = icmp sgt i32 %177, 9
  br i1 %178, label %183, label %179

179:                                              ; preds = %175
  %180 = load i8, ptr %20, align 1
  %181 = zext i8 %180 to i32
  %182 = icmp sgt i32 %181, 9
  br i1 %182, label %183, label %190

183:                                              ; preds = %179, %175, %155
  %184 = load i32, ptr %14, align 4
  %185 = icmp ne i32 %184, 16777215
  br i1 %185, label %186, label %190

186:                                              ; preds = %183
  %187 = load ptr, ptr %8, align 8
  %188 = load ptr, ptr %24, align 8
  %189 = call ptr @expert_add_info(ptr noundef %187, ptr noundef %188, ptr noundef @ei_E212_mcc_non_decimal)
  br label %190

190:                                              ; preds = %186, %183, %179
  %191 = load i8, ptr %28, align 1, !range !6, !noundef !7
  %192 = trunc i8 %191 to i1
  br i1 %192, label %193, label %233

193:                                              ; preds = %190
  %194 = load ptr, ptr %8, align 8
  %195 = getelementptr inbounds nuw %struct._packet_info, ptr %194, i32 0, i32 51
  %196 = load ptr, ptr %195, align 8
  %197 = load i16, ptr %17, align 2
  %198 = zext i16 %197 to i32
  %199 = call noalias ptr (ptr, ptr, ...) @wmem_strdup_printf(ptr noundef %196, ptr noundef @.str.3, i32 noundef %198)
  store ptr %199, ptr %26, align 8
  %200 = load ptr, ptr %9, align 8
  %201 = load i32, ptr %30, align 4
  %202 = load ptr, ptr %7, align 8
  %203 = load i32, ptr %13, align 4
  %204 = add i32 %203, 1
  %205 = load ptr, ptr %26, align 8
  %206 = load i16, ptr %16, align 2
  %207 = zext i16 %206 to i32
  %208 = mul i32 %207, 1000
  %209 = load i16, ptr %17, align 2
  %210 = zext i16 %209 to i32
  %211 = add i32 %208, %210
  %212 = call ptr @val_to_str_ext_const(i32 noundef %211, ptr noundef @mcc_mnc_3digits_codes_ext, ptr noundef @.str.5)
  %213 = load ptr, ptr %26, align 8
  %214 = call ptr (ptr, i32, ptr, i32, i32, ptr, ptr, ...) @proto_tree_add_string_format_value(ptr noundef %200, i32 noundef %201, ptr noundef %202, i32 noundef %204, i32 noundef 2, ptr noundef %205, ptr noundef @.str.4, ptr noundef %212, ptr noundef %213)
  store ptr %214, ptr %24, align 8
  %215 = load ptr, ptr %8, align 8
  %216 = getelementptr inbounds nuw %struct._packet_info, ptr %215, i32 0, i32 51
  %217 = load ptr, ptr %216, align 8
  %218 = load i16, ptr %16, align 2
  %219 = zext i16 %218 to i32
  %220 = load i16, ptr %16, align 2
  %221 = zext i16 %220 to i32
  %222 = call ptr @val_to_str_ext_const(i32 noundef %221, ptr noundef @E212_codes_ext, ptr noundef @.str.7)
  %223 = load i16, ptr %17, align 2
  %224 = zext i16 %223 to i32
  %225 = load i16, ptr %16, align 2
  %226 = zext i16 %225 to i32
  %227 = mul i32 %226, 1000
  %228 = load i16, ptr %17, align 2
  %229 = zext i16 %228 to i32
  %230 = add i32 %227, %229
  %231 = call ptr @val_to_str_ext_const(i32 noundef %230, ptr noundef @mcc_mnc_3digits_codes_ext, ptr noundef @.str.7)
  %232 = call noalias ptr (ptr, ptr, ...) @wmem_strdup_printf(ptr noundef %217, ptr noundef @.str.6, i32 noundef %219, ptr noundef %222, i32 noundef %224, ptr noundef %231)
  store ptr %232, ptr %27, align 8
  br label %273

233:                                              ; preds = %190
  %234 = load ptr, ptr %8, align 8
  %235 = getelementptr inbounds nuw %struct._packet_info, ptr %234, i32 0, i32 51
  %236 = load ptr, ptr %235, align 8
  %237 = load i16, ptr %17, align 2
  %238 = zext i16 %237 to i32
  %239 = call noalias ptr (ptr, ptr, ...) @wmem_strdup_printf(ptr noundef %236, ptr noundef @.str.8, i32 noundef %238)
  store ptr %239, ptr %26, align 8
  %240 = load ptr, ptr %9, align 8
  %241 = load i32, ptr %30, align 4
  %242 = load ptr, ptr %7, align 8
  %243 = load i32, ptr %13, align 4
  %244 = add i32 %243, 1
  %245 = load ptr, ptr %26, align 8
  %246 = load i16, ptr %16, align 2
  %247 = zext i16 %246 to i32
  %248 = mul i32 %247, 100
  %249 = load i16, ptr %17, align 2
  %250 = zext i16 %249 to i32
  %251 = add i32 %248, %250
  %252 = call ptr @val_to_str_ext_const(i32 noundef %251, ptr noundef @mcc_mnc_2digits_codes_ext, ptr noundef @.str.5)
  %253 = load ptr, ptr %26, align 8
  %254 = call ptr (ptr, i32, ptr, i32, i32, ptr, ptr, ...) @proto_tree_add_string_format_value(ptr noundef %240, i32 noundef %241, ptr noundef %242, i32 noundef %244, i32 noundef 2, ptr noundef %245, ptr noundef @.str.4, ptr noundef %252, ptr noundef %253)
  store ptr %254, ptr %24, align 8
  %255 = load ptr, ptr %8, align 8
  %256 = getelementptr inbounds nuw %struct._packet_info, ptr %255, i32 0, i32 51
  %257 = load ptr, ptr %256, align 8
  %258 = load i16, ptr %16, align 2
  %259 = zext i16 %258 to i32
  %260 = load i16, ptr %16, align 2
  %261 = zext i16 %260 to i32
  %262 = call ptr @val_to_str_ext_const(i32 noundef %261, ptr noundef @E212_codes_ext, ptr noundef @.str.7)
  %263 = load i16, ptr %17, align 2
  %264 = zext i16 %263 to i32
  %265 = load i16, ptr %16, align 2
  %266 = zext i16 %265 to i32
  %267 = mul i32 %266, 100
  %268 = load i16, ptr %17, align 2
  %269 = zext i16 %268 to i32
  %270 = add i32 %267, %269
  %271 = call ptr @val_to_str_ext_const(i32 noundef %270, ptr noundef @mcc_mnc_2digits_codes_ext, ptr noundef @.str.7)
  %272 = call noalias ptr (ptr, ptr, ...) @wmem_strdup_printf(ptr noundef %257, ptr noundef @.str.9, i32 noundef %259, ptr noundef %262, i32 noundef %264, ptr noundef %271)
  store ptr %272, ptr %27, align 8
  br label %273

273:                                              ; preds = %233, %193
  %274 = load i8, ptr %21, align 1
  %275 = zext i8 %274 to i32
  %276 = icmp sgt i32 %275, 9
  br i1 %276, label %289, label %277

277:                                              ; preds = %273
  %278 = load i8, ptr %22, align 1
  %279 = zext i8 %278 to i32
  %280 = icmp sgt i32 %279, 9
  br i1 %280, label %289, label %281

281:                                              ; preds = %277
  %282 = load i8, ptr %23, align 1
  %283 = zext i8 %282 to i32
  %284 = icmp sgt i32 %283, 9
  br i1 %284, label %285, label %296

285:                                              ; preds = %281
  %286 = load i8, ptr %23, align 1
  %287 = zext i8 %286 to i32
  %288 = icmp ne i32 %287, 15
  br i1 %288, label %289, label %296

289:                                              ; preds = %285, %277, %273
  %290 = load i32, ptr %14, align 4
  %291 = icmp ne i32 %290, 16777215
  br i1 %291, label %292, label %296

292:                                              ; preds = %289
  %293 = load ptr, ptr %8, align 8
  %294 = load ptr, ptr %24, align 8
  %295 = call ptr @expert_add_info(ptr noundef %293, ptr noundef %294, ptr noundef @ei_E212_mnc_non_decimal)
  br label %296

296:                                              ; preds = %292, %289, %285, %281
  %297 = load ptr, ptr %27, align 8
  call void @llvm.lifetime.end.p0(i64 4, ptr %30) #6
  call void @llvm.lifetime.end.p0(i64 4, ptr %29) #6
  call void @llvm.lifetime.end.p0(i64 1, ptr %28) #6
  call void @llvm.lifetime.end.p0(i64 8, ptr %27) #6
  call void @llvm.lifetime.end.p0(i64 8, ptr %26) #6
  call void @llvm.lifetime.end.p0(i64 8, ptr %25) #6
  call void @llvm.lifetime.end.p0(i64 8, ptr %24) #6
  call void @llvm.lifetime.end.p0(i64 1, ptr %23) #6
  call void @llvm.lifetime.end.p0(i64 1, ptr %22) #6
  call void @llvm.lifetime.end.p0(i64 1, ptr %21) #6
  call void @llvm.lifetime.end.p0(i64 1, ptr %20) #6
  call void @llvm.lifetime.end.p0(i64 1, ptr %19) #6
  call void @llvm.lifetime.end.p0(i64 1, ptr %18) #6
  call void @llvm.lifetime.end.p0(i64 2, ptr %17) #6
  call void @llvm.lifetime.end.p0(i64 2, ptr %16) #6
  call void @llvm.lifetime.end.p0(i64 1, ptr %15) #6
  call void @llvm.lifetime.end.p0(i64 4, ptr %14) #6
  call void @llvm.lifetime.end.p0(i64 4, ptr %13) #6
  ret ptr %297
}