; Function Attrs: null_pointer_is_valid sspstrong uwtable
define hidden noalias ptr @dissect_e212_mcc_mnc_wmem_packet_str(ptr noundef %0, ptr noundef %1, ptr noundef %2, i32 noundef %3, i32 noundef %4, i1 noundef zeroext %5) local_unnamed_addr #1 {
  %switch.tableidx = add i32 %4, -1
  %7 = icmp ult i32 %switch.tableidx, 11
  br i1 %7, label %switch.lookup, label %10

switch.lookup:                                    ; preds = %6
  %8 = zext nneg i32 %switch.tableidx to i64
  %switch.gep = getelementptr inbounds nuw [11 x ptr], ptr @switch.table.dissect_e212_mcc_mnc_wmem_packet_str, i64 0, i64 %8
  %switch.load = load ptr, ptr %switch.gep, align 8
  %9 = zext nneg i32 %switch.tableidx to i64
  %switch.gep118 = getelementptr inbounds nuw [11 x ptr], ptr @switch.table.dissect_e212_mcc_mnc_wmem_packet_str.1, i64 0, i64 %9
  %switch.load119 = load ptr, ptr %switch.gep118, align 8
  br label %10

10:                                               ; preds = %6, %switch.lookup
  %.0103.in = phi ptr [ %switch.load, %switch.lookup ], [ @hf_E212_mcc, %6 ]
  %.0.in = phi ptr [ %switch.load119, %switch.lookup ], [ @hf_E212_mnc, %6 ]
  %.0 = load i32, ptr %.0.in, align 4
  %.0103 = load i32, ptr %.0103.in, align 4
  %11 = tail call i32 @tvb_get_ntoh24(ptr noundef %0, i32 noundef %3)
  %12 = tail call zeroext i8 @tvb_get_uint8(ptr noundef %0, i32 noundef %3)
  %13 = and i8 %12, 15
  %14 = lshr i8 %12, 4
  %15 = add i32 %3, 1
  %16 = tail call zeroext i8 @tvb_get_uint8(ptr noundef %0, i32 noundef %15)
  %17 = and i8 %16, 15
  %18 = lshr i8 %16, 4
  %19 = add i32 %3, 2
  %20 = tail call zeroext i8 @tvb_get_uint8(ptr noundef %0, i32 noundef %19)
  %21 = and i8 %20, 15
  %22 = lshr i8 %20, 4
  %23 = zext nneg i8 %13 to i32
  %24 = mul nuw nsw i32 %23, 100
  %narrow = mul nuw i8 %14, 10
  %25 = zext i8 %narrow to i32
  %26 = add nuw nsw i32 %24, %25
  %27 = zext nneg i8 %17 to i32
  %28 = add nuw nsw i32 %26, %27
  %narrow108 = mul nuw i8 %21, 10
  %29 = zext i8 %narrow108 to i32
  %30 = zext nneg i8 %22 to i32
  %31 = add nuw nsw i32 %29, %30
  %32 = zext nneg i8 %18 to i32
  %33 = icmp ne i8 %18, 15
  %34 = icmp eq i32 %11, 16777215
  %or.cond = select i1 %33, i1 true, i1 %34
  br i1 %or.cond, label %35, label %42

35:                                               ; preds = %10
  br i1 %5, label %36, label %39

36:                                               ; preds = %35
  %37 = mul nuw nsw i32 %31, 10
  %38 = add nuw nsw i32 %37, %32
  br label %42

39:                                               ; preds = %35
  %40 = mul nuw nsw i32 %32, 100
  %41 = add nuw nsw i32 %31, %40
  br label %42

42:                                               ; preds = %36, %39, %10
  %.0107.in = phi i32 [ %38, %36 ], [ %41, %39 ], [ %31, %10 ]
  %43 = getelementptr inbounds nuw i8, ptr %1, i64 408
  %44 = load ptr, ptr %43, align 8
  %45 = tail call noalias ptr (ptr, ptr, ...) @wmem_strdup_printf(ptr noundef %44, ptr noundef nonnull @.str.3, i32 noundef %28)
  %46 = tail call ptr @val_to_str_ext_const(i32 noundef %28, ptr noundef nonnull @E212_codes_ext, ptr noundef nonnull @.str.5)
  %47 = tail call ptr (ptr, i32, ptr, i32, i32, ptr, ptr, ...) @proto_tree_add_string_format_value(ptr noundef %2, i32 noundef %.0103, ptr noundef %0, i32 noundef %3, i32 noundef 2, ptr noundef %45, ptr noundef nonnull @.str.4, ptr noundef %46, ptr noundef %45)
  %48 = icmp samesign ugt i8 %13, 9
  %49 = icmp ugt i8 %12, -97
  %or.cond4 = or i1 %49, %48
  %50 = icmp samesign ugt i8 %17, 9
  %or.cond7 = select i1 %or.cond4, i1 true, i1 %50
  %51 = icmp ne i32 %11, 16777215
  %or.cond9 = select i1 %or.cond7, i1 %51, i1 false
  br i1 %or.cond9, label %52, label %54

52:                                               ; preds = %42
  %53 = tail call ptr @expert_add_info(ptr noundef %1, ptr noundef %47, ptr noundef nonnull @ei_E212_mcc_non_decimal)
  br label %54

54:                                               ; preds = %42, %52
  %55 = load ptr, ptr %43, align 8
  %.str.3..str.8 = select i1 %or.cond, ptr @.str.3, ptr @.str.8
  %. = select i1 %or.cond, i32 1000, i32 100
  %mcc_mnc_3digits_codes_ext.mcc_mnc_2digits_codes_ext = select i1 %or.cond, ptr @mcc_mnc_3digits_codes_ext, ptr @mcc_mnc_2digits_codes_ext
  %.str.6..str.9 = select i1 %or.cond, ptr @.str.6, ptr @.str.9
  %56 = tail call noalias ptr (ptr, ptr, ...) @wmem_strdup_printf(ptr noundef %55, ptr noundef nonnull %.str.3..str.8, i32 noundef %.0107.in)
  %57 = mul nuw nsw i32 %28, %.
  %58 = add nuw nsw i32 %.0107.in, %57
  %59 = tail call ptr @val_to_str_ext_const(i32 noundef %58, ptr noundef nonnull %mcc_mnc_3digits_codes_ext.mcc_mnc_2digits_codes_ext, ptr noundef nonnull @.str.5)
  %60 = tail call ptr (ptr, i32, ptr, i32, i32, ptr, ptr, ...) @proto_tree_add_string_format_value(ptr noundef %2, i32 noundef %.0, ptr noundef %0, i32 noundef %15, i32 noundef 2, ptr noundef %56, ptr noundef nonnull @.str.4, ptr noundef %59, ptr noundef %56)
  %61 = load ptr, ptr %43, align 8
  %62 = tail call ptr @val_to_str_ext_const(i32 noundef %28, ptr noundef nonnull @E212_codes_ext, ptr noundef nonnull @.str.7)
  %63 = tail call ptr @val_to_str_ext_const(i32 noundef %58, ptr noundef nonnull %mcc_mnc_3digits_codes_ext.mcc_mnc_2digits_codes_ext, ptr noundef nonnull @.str.7)
  %64 = tail call noalias ptr (ptr, ptr, ...) @wmem_strdup_printf(ptr noundef %61, ptr noundef nonnull %.str.6..str.9, i32 noundef %28, ptr noundef %62, i32 noundef %.0107.in, ptr noundef %63)
  %65 = icmp samesign ugt i8 %21, 9
  %66 = icmp ugt i8 %20, -97
  %or.cond12 = or i1 %66, %65
  br i1 %or.cond12, label %69, label %67

67:                                               ; preds = %54
  %68 = icmp ugt i8 %16, -97
  %or.cond15 = and i1 %68, %33
  %or.cond17 = select i1 %or.cond15, i1 %51, i1 false
  br i1 %or.cond17, label %70, label %72

69:                                               ; preds = %54
  br i1 %51, label %70, label %72

70:                                               ; preds = %67, %69
  %71 = tail call ptr @expert_add_info(ptr noundef %1, ptr noundef %60, ptr noundef nonnull @ei_E212_mnc_non_decimal)
  br label %72

72:                                               ; preds = %70, %69, %67
  ret ptr %64
}